; Function Attrs: nounwind uwtable
define ptr @var_tmp_var(ptr noundef readonly %0) local_unnamed_addr #0 {
  %.not = icmp eq ptr %0, null
  br i1 %.not, label %31, label %2

2:                                                ; preds = %1
  %3 = load ptr, ptr %0, align 8
  %4 = icmp eq ptr %3, null
  br i1 %4, label %31, label %5

5:                                                ; preds = %2
  %6 = getelementptr inbounds i8, ptr %3, i64 16
  %7 = load ptr, ptr %6, align 8
  %.not34 = icmp eq ptr %7, null
  br i1 %.not34, label %11, label %8

8:                                                ; preds = %5
  %9 = load i64, ptr %7, align 8
  %10 = icmp sgt i64 %9, 254
  br i1 %10, label %11, label %23

11:                                               ; preds = %8, %5
  %12 = tail call noalias dereferenceable_or_null(4096) ptr @_emalloc_large(i64 noundef 4096) #12
  tail call void @llvm.memset.p0.i64(ptr noundef nonnull align 8 dereferenceable(16) %12, i8 0, i64 16, i1 false)
  %13 = load ptr, ptr %0, align 8
  %14 = getelementptr inbounds i8, ptr %13, i64 8
  %15 = load ptr, ptr %14, align 8
  %.not35 = icmp eq ptr %15, null
  br i1 %.not35, label %20, label %16

16:                                               ; preds = %11
  %17 = getelementptr inbounds i8, ptr %13, i64 16
  %18 = load ptr, ptr %17, align 8
  %19 = getelementptr inbounds i8, ptr %18, i64 8
  br label %20

20:                                               ; preds = %11, %16
  %.sink = phi ptr [ %19, %16 ], [ %14, %11 ]
  store ptr %12, ptr %.sink, align 8
  %21 = load ptr, ptr %0, align 8
  %22 = getelementptr inbounds i8, ptr %21, i64 16
  store ptr %12, ptr %22, align 8
  %.pre = load i64, ptr %12, align 8
  br label %23

23:                                               ; preds = %20, %8
  %24 = phi i64 [ %.pre, %20 ], [ %9, %8 ]
  %.029 = phi ptr [ %12, %20 ], [ %7, %8 ]
  %25 = getelementptr inbounds i8, ptr %.029, i64 16
  %26 = add nsw i64 %24, 1
  %27 = getelementptr inbounds [255 x %struct._zval_struct], ptr %25, i64 0, i64 %24, i32 1
  store i32 0, ptr %27, align 8
  %28 = getelementptr inbounds [255 x %struct._zval_struct], ptr %25, i64 0, i64 %24, i32 2
  store i32 0, ptr %28, align 4
  store i64 %26, ptr %.029, align 8
  %29 = getelementptr inbounds i8, ptr %.029, i64 16
  %30 = getelementptr inbounds [255 x %struct._zval_struct], ptr %29, i64 0, i64 %24
  br label %31

31:                                               ; preds = %1, %2, %23
  %.0 = phi ptr [ %30, %23 ], [ null, %2 ], [ null, %1 ]
  ret ptr %.0
}